target datalayout = "e-m:e-p270:32:32-p271:32:32-p272:64:64-i64:64-i128:128-f80:128-n8:16:32:64-S128"
target triple = "x86_64-pc-linux-gnu"

%"struct.url::URLComponentSource" = type { ptr, ptr, ptr, ptr, ptr, ptr, ptr, ptr }
%"struct.url::Component" = type { i32, i32 }
%"struct.url::Parsed" = type { %"struct.url::Component", %"struct.url::Component", %"struct.url::Component", %"struct.url::Component", %"struct.url::Component", %"struct.url::Component", %"struct.url::Component", %"struct.url::Component", ptr }

; Function Attrs: mustprogress nounwind uwtable
define linkonce_odr void @_ZN3url18URLComponentSourceIcEC2EPKc(ptr noundef nonnull align 8 dereferenceable(64) %0, ptr noundef %1) unnamed_addr #0 comdat align 2 {
  %3 = alloca ptr, align 8
  %4 = alloca ptr, align 8
  store ptr %0, ptr %3, align 8, !tbaa !16
  store ptr %1, ptr %4, align 8, !tbaa !3
  %5 = load ptr, ptr %3, align 8
  %6 = getelementptr inbounds nuw %"struct.url::URLComponentSource", ptr %5, i32 0, i32 0
  %7 = load ptr, ptr %4, align 8, !tbaa !3
  store ptr %7, ptr %6, align 8, !tbaa !18
  %8 = getelementptr inbounds nuw %"struct.url::URLComponentSource", ptr %5, i32 0, i32 1
  %9 = load ptr, ptr %4, align 8, !tbaa !3
  store ptr %9, ptr %8, align 8, !tbaa !22
  %10 = getelementptr inbounds nuw %"struct.url::URLComponentSource", ptr %5, i32 0, i32 2
  %11 = load ptr, ptr %4, align 8, !tbaa !3
  store ptr %11, ptr %10, align 8, !tbaa !23
  %12 = getelementptr inbounds nuw %"struct.url::URLComponentSource", ptr %5, i32 0, i32 3
  %13 = load ptr, ptr %4, align 8, !tbaa !3
  store ptr %13, ptr %12, align 8, !tbaa !26
  %14 = getelementptr inbounds nuw %"struct.url::URLComponentSource", ptr %5, i32 0, i32 4
  %15 = load ptr, ptr %4, align 8, !tbaa !3
  store ptr %15, ptr %14, align 8, !tbaa !31
  %16 = getelementptr inbounds nuw %"struct.url::URLComponentSource", ptr %5, i32 0, i32 5
  %17 = load ptr, ptr %4, align 8, !tbaa !3
  store ptr %17, ptr %16, align 8, !tbaa !32
  %18 = getelementptr inbounds nuw %"struct.url::URLComponentSource", ptr %5, i32 0, i32 6
  %19 = load ptr, ptr %4, align 8, !tbaa !3
  store ptr %19, ptr %18, align 8, !tbaa !34
  %20 = getelementptr inbounds nuw %"struct.url::URLComponentSource", ptr %5, i32 0, i32 7
  %21 = load ptr, ptr %4, align 8, !tbaa !3
  store ptr %21, ptr %20, align 8, !tbaa !35
  ret void
}

; Function Attrs: mustprogress uwtable
define noundef zeroext i1 @_ZN3url18ReplaceStandardURLEPKcRKNS_6ParsedERKNS_12ReplacementsIcEEPNS_16CharsetConverterEPNS_12CanonOutputTIcEEPS2_(ptr noundef %0, ptr noundef nonnull align 8 dereferenceable(72) %1, ptr noundef nonnull align 8 dereferenceable(136) %2, ptr noundef %3, ptr noundef %4, ptr noundef %5) #3 personality ptr @__gxx_personality_v0 {
  %7 = alloca ptr, align 8
  %8 = alloca ptr, align 8
  %9 = alloca ptr, align 8
  %10 = alloca ptr, align 8
  %11 = alloca ptr, align 8
  %12 = alloca ptr, align 8
  %13 = alloca %"struct.url::URLComponentSource", align 8
  %14 = alloca %"struct.url::Parsed", align 8
  %15 = alloca ptr, align 8
  %16 = alloca i32, align 4
  store ptr %0, ptr %7, align 8, !tbaa !3
  store ptr %1, ptr %8, align 8, !tbaa !10
  store ptr %2, ptr %9, align 8, !tbaa !49
  store ptr %3, ptr %10, align 8, !tbaa !12
  store ptr %4, ptr %11, align 8, !tbaa !14
  store ptr %5, ptr %12, align 8, !tbaa !10
  call void @llvm.lifetime.start.p0(i64 64, ptr %13) #12
  %17 = load ptr, ptr %7, align 8, !tbaa !3
  call void @_ZN3url18URLComponentSourceIcEC2EPKc(ptr noundef nonnull align 8 dereferenceable(64) %13, ptr noundef %17)
  call void @llvm.lifetime.start.p0(i64 72, ptr %14) #12
  %18 = load ptr, ptr %8, align 8, !tbaa !10
  call void @_ZN3url6ParsedC1ERKS0_(ptr noundef nonnull align 8 dereferenceable(72) %14, ptr noundef nonnull align 8 dereferenceable(72) %18)
  %19 = load ptr, ptr %7, align 8, !tbaa !3
  %20 = load ptr, ptr %9, align 8, !tbaa !49
  invoke void @_ZN3url23SetupOverrideComponentsEPKcRKNS_12ReplacementsIcEEPNS_18URLComponentSourceIcEEPNS_6ParsedE(ptr noundef %19, ptr noundef nonnull align 8 dereferenceable(136) %20, ptr noundef %13, ptr noundef %14)
          to label %21 unwind label %27

21:                                               ; preds = %6
  %22 = load ptr, ptr %10, align 8, !tbaa !12
  %23 = load ptr, ptr %11, align 8, !tbaa !14
  %24 = load ptr, ptr %12, align 8, !tbaa !10
  %25 = invoke noundef zeroext i1 @_ZN3url12_GLOBAL__N_125DoCanonicalizeStandardURLIchEEbRKNS_18URLComponentSourceIT_EERKNS_6ParsedEPNS_16CharsetConverterEPNS_12CanonOutputTIcEEPS7_(ptr noundef nonnull align 8 dereferenceable(64) %13, ptr noundef nonnull align 8 dereferenceable(72) %14, ptr noundef %22, ptr noundef %23, ptr noundef %24)
          to label %26 unwind label %27

26:                                               ; preds = %21
  call void @_ZN3url6ParsedD1Ev(ptr noundef nonnull align 8 dereferenceable(72) %14) #12
  call void @llvm.lifetime.end.p0(i64 72, ptr %14) #12
  call void @llvm.lifetime.end.p0(i64 64, ptr %13) #12
  ret i1 %25

27:                                               ; preds = %21, %6
  %28 = landingpad { ptr, i32 }
          cleanup
  %29 = extractvalue { ptr, i32 } %28, 0
  store ptr %29, ptr %15, align 8
  %30 = extractvalue { ptr, i32 } %28, 1
  store i32 %30, ptr %16, align 4
  call void @_ZN3url6ParsedD1Ev(ptr noundef nonnull align 8 dereferenceable(72) %14) #12
  call void @llvm.lifetime.end.p0(i64 72, ptr %14) #12
  call void @llvm.lifetime.end.p0(i64 64, ptr %13) #12
  br label %31

31:                                               ; preds = %27
  %32 = load ptr, ptr %15, align 8
  %33 = load i32, ptr %16, align 4
  %34 = insertvalue { ptr, i32 } poison, ptr %32, 0
  %35 = insertvalue { ptr, i32 } %34, i32 %33, 1
  resume { ptr, i32 } %35
}