; Function Attrs: mustprogress uwtable
define noundef zeroext i1 @_ZN3url18ReplaceStandardURLEPKcRKNS_6ParsedERKNS_12ReplacementsIcEEPNS_16CharsetConverterEPNS_12CanonOutputTIcEEPS2_(ptr noundef %0, ptr noundef nonnull align 8 dereferenceable(72) %1, ptr noundef nonnull align 8 dereferenceable(136) %2, ptr noundef %3, ptr noundef %4, ptr noundef %5) local_unnamed_addr #3 personality ptr @__gxx_personality_v0 {
  %7 = alloca %"struct.url::URLComponentSource", align 8
  %8 = alloca %"struct.url::Parsed", align 8
  call void @llvm.lifetime.start.p0(i64 64, ptr nonnull %7) #13
  store ptr %0, ptr %7, align 8, !tbaa !3
  %9 = getelementptr inbounds nuw i8, ptr %7, i64 8
  store ptr %0, ptr %9, align 8, !tbaa !9
  %10 = getelementptr inbounds nuw i8, ptr %7, i64 16
  store ptr %0, ptr %10, align 8, !tbaa !10
  %11 = getelementptr inbounds nuw i8, ptr %7, i64 24
  store ptr %0, ptr %11, align 8, !tbaa !11
  %12 = getelementptr inbounds nuw i8, ptr %7, i64 32
  store ptr %0, ptr %12, align 8, !tbaa !12
  %13 = getelementptr inbounds nuw i8, ptr %7, i64 40
  store ptr %0, ptr %13, align 8, !tbaa !13
  %14 = getelementptr inbounds nuw i8, ptr %7, i64 48
  store ptr %0, ptr %14, align 8, !tbaa !14
  %15 = getelementptr inbounds nuw i8, ptr %7, i64 56
  store ptr %0, ptr %15, align 8, !tbaa !15
  call void @llvm.lifetime.start.p0(i64 72, ptr nonnull %8) #13
  call void @_ZN3url6ParsedC1ERKS0_(ptr noundef nonnull align 8 dereferenceable(72) %8, ptr noundef nonnull align 8 dereferenceable(72) %1)
  invoke void @_ZN3url23SetupOverrideComponentsEPKcRKNS_12ReplacementsIcEEPNS_18URLComponentSourceIcEEPNS_6ParsedE(ptr noundef %0, ptr noundef nonnull align 8 dereferenceable(136) %2, ptr noundef nonnull %7, ptr noundef nonnull %8)
          to label %16 unwind label %19

16:                                               ; preds = %6
  %17 = invoke fastcc noundef zeroext i1 @_ZN3url12_GLOBAL__N_125DoCanonicalizeStandardURLIchEEbRKNS_18URLComponentSourceIT_EERKNS_6ParsedEPNS_16CharsetConverterEPNS_12CanonOutputTIcEEPS7_(ptr noundef nonnull align 8 dereferenceable(64) %7, ptr noundef nonnull align 8 dereferenceable(72) %8, ptr noundef %3, ptr noundef %4, ptr noundef %5)
          to label %18 unwind label %19

18:                                               ; preds = %16
  call void @_ZN3url6ParsedD1Ev(ptr noundef nonnull align 8 dereferenceable(72) %8) #13
  call void @llvm.lifetime.end.p0(i64 72, ptr nonnull %8) #13
  call void @llvm.lifetime.end.p0(i64 64, ptr nonnull %7) #13
  ret i1 %17

19:                                               ; preds = %16, %6
  %20 = landingpad { ptr, i32 }
          cleanup
  call void @_ZN3url6ParsedD1Ev(ptr noundef nonnull align 8 dereferenceable(72) %8) #13
  call void @llvm.lifetime.end.p0(i64 72, ptr nonnull %8) #13
  call void @llvm.lifetime.end.p0(i64 64, ptr nonnull %7) #13
  resume { ptr, i32 } %20
}